target datalayout = "e-m:e-p270:32:32-p271:32:32-p272:64:64-i64:64-i128:128-f80:128-n8:16:32:64-S128"
target triple = "x86_64-pc-linux-gnu"

%struct.lua_State = type { i8, i8, i8, i8, i8, i8, i8, ptr, ptr, ptr, ptr, ptr, ptr, ptr, ptr, i32, i32, i16, i16, i32, ptr, ptr, ptr, ptr, ptr }
%struct.global_State = type { %struct.stringtable, ptr, ptr, i8, i8, ptr, ptr, ptr, i64, i64, i32, i32, i32, [40 x ptr], [40 x ptr], ptr, ptr, ptr, [256 x i64], ptr, %struct.UpVal, [11 x ptr], [11 x ptr], [21 x ptr], %struct.lua_TValue, %struct.lua_TValue, i32, ptr, i64, [4 x i64], %struct.lua_Callbacks, %struct.lua_ExecutionCallbacks, [128 x ptr], [128 x ptr], [128 x ptr], %struct.GCStats }
%struct.stringtable = type { ptr, i32, i32 }
%struct.UpVal = type { i8, i8, i8, i8, ptr, %union.anon }
%union.anon = type { %struct.anon }
%struct.anon = type { ptr, ptr, ptr }
%struct.lua_TValue = type { %union.Value, [1 x i32], i32 }
%union.Value = type { ptr }
%struct.lua_Callbacks = type { ptr, ptr, ptr, ptr, ptr, ptr, ptr, ptr, ptr, ptr }
%struct.lua_ExecutionCallbacks = type { ptr, ptr, ptr, ptr, ptr, ptr, ptr }
%struct.GCStats = type { [32 x i32], i32, i32, i64, i64, i64, double, double, double }

; Function Attrs: mustprogress nounwind uwtable
define internal noundef ptr @_ZN4Luau7CodeGenL17getCodeGenContextEP9lua_State(ptr noundef %0) #1 {
  %2 = alloca ptr, align 8
  store ptr %0, ptr %2, align 8, !tbaa !214
  %3 = load ptr, ptr %2, align 8, !tbaa !214
  %4 = getelementptr inbounds nuw %struct.lua_State, ptr %3, i32 0, i32 9
  %5 = load ptr, ptr %4, align 8, !tbaa !219
  %6 = getelementptr inbounds nuw %struct.global_State, ptr %5, i32 0, i32 31
  %7 = getelementptr inbounds nuw %struct.lua_ExecutionCallbacks, ptr %6, i32 0, i32 0
  %8 = load ptr, ptr %7, align 8, !tbaa !294
  ret ptr %8
}

; Function Attrs: mustprogress nounwind uwtable
define internal void @_ZN4Luau7CodeGenL12onCloseStateEP9lua_State(ptr noundef %0) #1 {
  %2 = alloca ptr, align 8
  %3 = alloca %struct.lua_ExecutionCallbacks, align 8
  store ptr %0, ptr %2, align 8, !tbaa !214
  %4 = load ptr, ptr %2, align 8, !tbaa !214
  %5 = call noundef ptr @_ZN4Luau7CodeGenL17getCodeGenContextEP9lua_State(ptr noundef %4) #17
  %6 = load ptr, ptr %5, align 8, !tbaa !27
  %7 = getelementptr inbounds ptr, ptr %6, i64 2
  %8 = load ptr, ptr %7, align 8
  call void %8(ptr noundef nonnull align 8 dereferenceable(2784) %5) #17
  call void @llvm.lifetime.start.p0(i64 56, ptr %3) #17
  call void @llvm.memset.p0.i64(ptr align 8 %3, i8 0, i64 56, i1 false)
  %9 = load ptr, ptr %2, align 8, !tbaa !214
  %10 = getelementptr inbounds nuw %struct.lua_State, ptr %9, i32 0, i32 9
  %11 = load ptr, ptr %10, align 8, !tbaa !219
  %12 = getelementptr inbounds nuw %struct.global_State, ptr %11, i32 0, i32 31
  call void @llvm.memcpy.p0.p0.i64(ptr align 8 %12, ptr align 8 %3, i64 56, i1 false), !tbaa.struct !398
  call void @llvm.lifetime.end.p0(i64 56, ptr %3) #17
  ret void
}