; Function Attrs: mustprogress nounwind uwtable
define internal void @_ZN4Luau7CodeGenL12onCloseStateEP9lua_State(ptr noundef readonly captures(none) %0) #7 {
  %2 = getelementptr i8, ptr %0, i64 24
  %.val = load ptr, ptr %2, align 8, !tbaa !121
  %3 = getelementptr i8, ptr %.val, i64 3368
  %.val.val = load ptr, ptr %3, align 8, !tbaa !148
  %4 = load ptr, ptr %.val.val, align 8, !tbaa !8
  %5 = getelementptr inbounds nuw i8, ptr %4, i64 16
  %6 = load ptr, ptr %5, align 8
  tail call void %6(ptr noundef nonnull align 8 dereferenceable(2784) %.val.val) #24
  %7 = load ptr, ptr %2, align 8, !tbaa !121
  %8 = getelementptr inbounds nuw i8, ptr %7, i64 3368
  tail call void @llvm.memset.p0.i64(ptr noundef nonnull align 8 dereferenceable(56) %8, i8 0, i64 56, i1 false)
  ret void
}